; Function Attrs: cold nofree norecurse nosync nounwind optsize memory(write, argmem: none, inaccessiblemem: none) uwtable
define internal void @ff_tx_init_tab_524288_int32() #6 {
  br label %2

1:                                                ; preds = %2
  store i32 0, ptr %11, align 4, !tbaa !10
  ret void

2:                                                ; preds = %0, %2
  %.07 = phi i32 [ 0, %0 ], [ %12, %2 ]
  %.056 = phi ptr [ @ff_tx_tab_524288_int32, %0 ], [ %11, %2 ]
  %3 = uitofp nneg i32 %.07 to double
  %4 = fmul nsz double %3, 0x3EE921FB54442D18
  %5 = tail call nsz double @llvm.cos.f64(double %4)
  %6 = fmul nsz double %5, 0x41E0000000000000
  %7 = fptrunc nsz double %6 to float
  %8 = tail call i64 @llvm.llrint.i64.f32(float %7)
  %9 = tail call i64 @llvm.smax.i64(i64 %8, i64 -2147483648)
  %.0.i = tail call i64 @llvm.smin.i64(i64 %9, i64 2147483647)
  %10 = trunc nsw i64 %.0.i to i32
  %11 = getelementptr inbounds nuw i8, ptr %.056, i64 4
  store i32 %10, ptr %.056, align 4, !tbaa !10
  %12 = add nuw nsw i32 %.07, 1
  %exitcond.not = icmp eq i32 %12, 131072
  br i1 %exitcond.not, label %1, label %2, !llvm.loop !45
}